target datalayout = "e-m:e-p270:32:32-p271:32:32-p272:64:64-i64:64-i128:128-f80:128-n8:16:32:64-S128"
target triple = "x86_64-pc-linux-gnu"

@.str.4 = private unnamed_addr constant [2 x i8] c"\0A\00", align 1
@.str.5 = private unnamed_addr constant [68 x i8] c"    bugpoint [options] [-script <filename> | -command \22<command>\22]\0A\00", align 1
@.str.6 = private unnamed_addr constant [81 x i8] c"This command minimizes the current design that is known to crash Yosys with the\0A\00", align 1
@.str.7 = private unnamed_addr constant [82 x i8] c"given script into a smaller testcase. It does this by removing an arbitrary part\0A\00", align 1
@.str.8 = private unnamed_addr constant [78 x i8] c"of the design and recursively invokes a new Yosys process with this modified\0A\00", align 1
@.str.9 = private unnamed_addr constant [79 x i8] c"design and the same script, repeating these steps while it can find a smaller\0A\00", align 1
@.str.10 = private unnamed_addr constant [79 x i8] c"design that still causes a crash. Once this command finishes, it replaces the\0A\00", align 1
@.str.11 = private unnamed_addr constant [67 x i8] c"current design with the smallest testcase it was able to produce.\0A\00", align 1
@.str.12 = private unnamed_addr constant [78 x i8] c"In order to save the reduced testcase you must write this out to a file with\0A\00", align 1
@.str.13 = private unnamed_addr constant [73 x i8] c"another command after `bugpoint` like `write_rtlil` or `write_verilog`.\0A\00", align 1
@.str.14 = private unnamed_addr constant [47 x i8] c"    -script <filename> | -command \22<command>\22\0A\00", align 1
@.str.15 = private unnamed_addr constant [67 x i8] c"        use this script file or command to crash Yosys. required.\0A\00", align 1
@.str.16 = private unnamed_addr constant [23 x i8] c"    -yosys <filename>\0A\00", align 1
@.str.17 = private unnamed_addr constant [67 x i8] c"        use this Yosys binary. if not specified, `yosys` is used.\0A\00", align 1
@.str.18 = private unnamed_addr constant [22 x i8] c"    -grep \22<string>\22\0A\00", align 1
@.str.19 = private unnamed_addr constant [71 x i8] c"        only consider crashes that place this string in the log file.\0A\00", align 1
@.str.20 = private unnamed_addr constant [11 x i8] c"    -fast\0A\00", align 1
@.str.21 = private unnamed_addr constant [80 x i8] c"        run `proc_clean; clean -purge` after each minimization step. converges\0A\00", align 1
@.str.22 = private unnamed_addr constant [76 x i8] c"        faster, but produces larger testcases, and may fail to produce any\0A\00", align 1
@.str.23 = private unnamed_addr constant [68 x i8] c"        testcase at all if the crash is related to dangling wires.\0A\00", align 1
@.str.24 = private unnamed_addr constant [12 x i8] c"    -clean\0A\00", align 1
@.str.25 = private unnamed_addr constant [75 x i8] c"        run `proc_clean; clean -purge` before checking testcase and after\0A\00", align 1
@.str.26 = private unnamed_addr constant [80 x i8] c"        finishing. produces smaller and more useful testcases, but may fail to\0A\00", align 1
@.str.27 = private unnamed_addr constant [80 x i8] c"        produce any testcase at all if the crash is related to dangling wires.\0A\00", align 1
@.str.28 = private unnamed_addr constant [78 x i8] c"It is possible to constrain which parts of the design will be considered for\0A\00", align 1
@.str.29 = private unnamed_addr constant [79 x i8] c"removal. Unless one or more of the following options are specified, all parts\0A\00", align 1
@.str.30 = private unnamed_addr constant [21 x i8] c"will be considered.\0A\00", align 1
@.str.31 = private unnamed_addr constant [14 x i8] c"    -modules\0A\00", align 1
@.str.32 = private unnamed_addr constant [77 x i8] c"        try to remove modules. modules with a (* bugpoint_keep *) attribute\0A\00", align 1
@.str.33 = private unnamed_addr constant [26 x i8] c"        will be skipped.\0A\00", align 1
@.str.34 = private unnamed_addr constant [12 x i8] c"    -ports\0A\00", align 1
@.str.35 = private unnamed_addr constant [80 x i8] c"        try to remove module ports. ports with a (* bugpoint_keep *) attribute\0A\00", align 1
@.str.36 = private unnamed_addr constant [59 x i8] c"        will be skipped (useful for clocks, resets, etc.)\0A\00", align 1
@.str.37 = private unnamed_addr constant [12 x i8] c"    -cells\0A\00", align 1
@.str.38 = private unnamed_addr constant [78 x i8] c"        try to remove cells. cells with a (* bugpoint_keep *) attribute will\0A\00", align 1
@.str.39 = private unnamed_addr constant [21 x i8] c"        be skipped.\0A\00", align 1
@.str.40 = private unnamed_addr constant [18 x i8] c"    -connections\0A\00", align 1
@.str.41 = private unnamed_addr constant [39 x i8] c"        try to reconnect ports to 'x.\0A\00", align 1
@.str.42 = private unnamed_addr constant [16 x i8] c"    -processes\0A\00", align 1
@.str.43 = private unnamed_addr constant [81 x i8] c"        try to remove processes. processes with a (* bugpoint_keep *) attribute\0A\00", align 1
@.str.44 = private unnamed_addr constant [14 x i8] c"    -assigns\0A\00", align 1
@.str.45 = private unnamed_addr constant [51 x i8] c"        try to remove process assigns from cases.\0A\00", align 1
@.str.46 = private unnamed_addr constant [14 x i8] c"    -updates\0A\00", align 1
@.str.47 = private unnamed_addr constant [51 x i8] c"        try to remove process updates from syncs.\0A\00", align 1
@.str.48 = private unnamed_addr constant [24 x i8] c"    -runner \22<prefix>\22\0A\00", align 1
@.str.49 = private unnamed_addr constant [74 x i8] c"        child process wrapping command, e.g., \22timeout 30\22, or valgrind.\0A\00", align 1

; Function Attrs: mustprogress uwtable
define internal void @_ZN12_GLOBAL__N_112BugpointPass4helpEv(ptr noundef nonnull align 8 dereferenceable(104) %0) unnamed_addr #4 align 2 {
  %2 = alloca ptr, align 8
  store ptr %0, ptr %2, align 8, !tbaa !6
  call void (ptr, ...) @_ZN5Yosys3logEPKcz(ptr noundef @.str.4)
  call void (ptr, ...) @_ZN5Yosys3logEPKcz(ptr noundef @.str.5)
  call void (ptr, ...) @_ZN5Yosys3logEPKcz(ptr noundef @.str.4)
  call void (ptr, ...) @_ZN5Yosys3logEPKcz(ptr noundef @.str.6)
  call void (ptr, ...) @_ZN5Yosys3logEPKcz(ptr noundef @.str.7)
  call void (ptr, ...) @_ZN5Yosys3logEPKcz(ptr noundef @.str.8)
  call void (ptr, ...) @_ZN5Yosys3logEPKcz(ptr noundef @.str.9)
  call void (ptr, ...) @_ZN5Yosys3logEPKcz(ptr noundef @.str.10)
  call void (ptr, ...) @_ZN5Yosys3logEPKcz(ptr noundef @.str.11)
  call void (ptr, ...) @_ZN5Yosys3logEPKcz(ptr noundef @.str.12)
  call void (ptr, ...) @_ZN5Yosys3logEPKcz(ptr noundef @.str.13)
  call void (ptr, ...) @_ZN5Yosys3logEPKcz(ptr noundef @.str.4)
  call void (ptr, ...) @_ZN5Yosys3logEPKcz(ptr noundef @.str.14)
  call void (ptr, ...) @_ZN5Yosys3logEPKcz(ptr noundef @.str.15)
  call void (ptr, ...) @_ZN5Yosys3logEPKcz(ptr noundef @.str.4)
  call void (ptr, ...) @_ZN5Yosys3logEPKcz(ptr noundef @.str.16)
  call void (ptr, ...) @_ZN5Yosys3logEPKcz(ptr noundef @.str.17)
  call void (ptr, ...) @_ZN5Yosys3logEPKcz(ptr noundef @.str.4)
  call void (ptr, ...) @_ZN5Yosys3logEPKcz(ptr noundef @.str.18)
  call void (ptr, ...) @_ZN5Yosys3logEPKcz(ptr noundef @.str.19)
  call void (ptr, ...) @_ZN5Yosys3logEPKcz(ptr noundef @.str.4)
  call void (ptr, ...) @_ZN5Yosys3logEPKcz(ptr noundef @.str.20)
  call void (ptr, ...) @_ZN5Yosys3logEPKcz(ptr noundef @.str.21)
  call void (ptr, ...) @_ZN5Yosys3logEPKcz(ptr noundef @.str.22)
  call void (ptr, ...) @_ZN5Yosys3logEPKcz(ptr noundef @.str.23)
  call void (ptr, ...) @_ZN5Yosys3logEPKcz(ptr noundef @.str.4)
  call void (ptr, ...) @_ZN5Yosys3logEPKcz(ptr noundef @.str.24)
  call void (ptr, ...) @_ZN5Yosys3logEPKcz(ptr noundef @.str.25)
  call void (ptr, ...) @_ZN5Yosys3logEPKcz(ptr noundef @.str.26)
  call void (ptr, ...) @_ZN5Yosys3logEPKcz(ptr noundef @.str.27)
  call void (ptr, ...) @_ZN5Yosys3logEPKcz(ptr noundef @.str.4)
  call void (ptr, ...) @_ZN5Yosys3logEPKcz(ptr noundef @.str.28)
  call void (ptr, ...) @_ZN5Yosys3logEPKcz(ptr noundef @.str.29)
  call void (ptr, ...) @_ZN5Yosys3logEPKcz(ptr noundef @.str.30)
  call void (ptr, ...) @_ZN5Yosys3logEPKcz(ptr noundef @.str.4)
  call void (ptr, ...) @_ZN5Yosys3logEPKcz(ptr noundef @.str.31)
  call void (ptr, ...) @_ZN5Yosys3logEPKcz(ptr noundef @.str.32)
  call void (ptr, ...) @_ZN5Yosys3logEPKcz(ptr noundef @.str.33)
  call void (ptr, ...) @_ZN5Yosys3logEPKcz(ptr noundef @.str.4)
  call void (ptr, ...) @_ZN5Yosys3logEPKcz(ptr noundef @.str.34)
  call void (ptr, ...) @_ZN5Yosys3logEPKcz(ptr noundef @.str.35)
  call void (ptr, ...) @_ZN5Yosys3logEPKcz(ptr noundef @.str.36)
  call void (ptr, ...) @_ZN5Yosys3logEPKcz(ptr noundef @.str.4)
  call void (ptr, ...) @_ZN5Yosys3logEPKcz(ptr noundef @.str.37)
  call void (ptr, ...) @_ZN5Yosys3logEPKcz(ptr noundef @.str.38)
  call void (ptr, ...) @_ZN5Yosys3logEPKcz(ptr noundef @.str.39)
  call void (ptr, ...) @_ZN5Yosys3logEPKcz(ptr noundef @.str.4)
  call void (ptr, ...) @_ZN5Yosys3logEPKcz(ptr noundef @.str.40)
  call void (ptr, ...) @_ZN5Yosys3logEPKcz(ptr noundef @.str.41)
  call void (ptr, ...) @_ZN5Yosys3logEPKcz(ptr noundef @.str.4)
  call void (ptr, ...) @_ZN5Yosys3logEPKcz(ptr noundef @.str.42)
  call void (ptr, ...) @_ZN5Yosys3logEPKcz(ptr noundef @.str.43)
  call void (ptr, ...) @_ZN5Yosys3logEPKcz(ptr noundef @.str.33)
  call void (ptr, ...) @_ZN5Yosys3logEPKcz(ptr noundef @.str.4)
  call void (ptr, ...) @_ZN5Yosys3logEPKcz(ptr noundef @.str.44)
  call void (ptr, ...) @_ZN5Yosys3logEPKcz(ptr noundef @.str.45)
  call void (ptr, ...) @_ZN5Yosys3logEPKcz(ptr noundef @.str.4)
  call void (ptr, ...) @_ZN5Yosys3logEPKcz(ptr noundef @.str.46)
  call void (ptr, ...) @_ZN5Yosys3logEPKcz(ptr noundef @.str.47)
  call void (ptr, ...) @_ZN5Yosys3logEPKcz(ptr noundef @.str.4)
  call void (ptr, ...) @_ZN5Yosys3logEPKcz(ptr noundef @.str.48)
  call void (ptr, ...) @_ZN5Yosys3logEPKcz(ptr noundef @.str.49)
  call void (ptr, ...) @_ZN5Yosys3logEPKcz(ptr noundef @.str.4)
  ret void
}